; ModuleID = '22/130.c'
source_filename = "22/130.c"
target datalayout = "e-m:e-p270:32:32-p271:32:32-p272:64:64-i64:64-f80:128-n8:16:32:64-S128"
target triple = "x86_64-pc-linux-gnu"

@.str = private unnamed_addr constant [4 x i8] c"%d,\00", align 1
@.str.1 = private unnamed_addr constant [3 x i8] c"%d\00", align 1
@.str.2 = private unnamed_addr constant [3 x i8] c"No\00", align 1

; Function Attrs: noinline nounwind uwtable
define dso_local void @swap(i32* %0, i32* %1) #0 {
  %3 = alloca i32*, align 8
  %4 = alloca i32*, align 8
  %5 = alloca i32, align 4
  store i32* %0, i32** %3, align 8
  store i32* %1, i32** %4, align 8
  %6 = load i32*, i32** %3, align 8
  %7 = load i32, i32* %6, align 4
  store i32 %7, i32* %5, align 4
  %8 = load i32*, i32** %4, align 8
  %9 = load i32, i32* %8, align 4
  %10 = load i32*, i32** %3, align 8
  store i32 %9, i32* %10, align 4
  %11 = load i32, i32* %5, align 4
  %12 = load i32*, i32** %4, align 8
  store i32 %11, i32* %12, align 4
  ret void
}

; Function Attrs: noinline nounwind uwtable
define dso_local void @paixu(i32* %0, i32 %1) #0 {
  %3 = alloca i32*, align 8
  %4 = alloca i32, align 4
  %5 = alloca i32, align 4
  %6 = alloca i32, align 4
  store i32* %0, i32** %3, align 8
  store i32 %1, i32* %4, align 4
  store i32 0, i32* %5, align 4
  br label %7

7:                                                ; preds = %48, %2
  %8 = load i32, i32* %5, align 4
  %9 = load i32, i32* %4, align 4
  %10 = sub nsw i32 %9, 1
  %11 = icmp slt i32 %8, %10
  br i1 %11, label %12, label %51

12:                                               ; preds = %7
  store i32 0, i32* %6, align 4
  br label %13

13:                                               ; preds = %44, %12
  %14 = load i32, i32* %6, align 4
  %15 = load i32, i32* %4, align 4
  %16 = load i32, i32* %5, align 4
  %17 = sub nsw i32 %15, %16
  %18 = sub nsw i32 %17, 1
  %19 = icmp slt i32 %14, %18
  br i1 %19, label %20, label %47

20:                                               ; preds = %13
  %21 = load i32*, i32** %3, align 8
  %22 = load i32, i32* %6, align 4
  %23 = sext i32 %22 to i64
  %24 = getelementptr inbounds i32, i32* %21, i64 %23
  %25 = load i32, i32* %24, align 4
  %26 = load i32*, i32** %3, align 8
  %27 = load i32, i32* %6, align 4
  %28 = sext i32 %27 to i64
  %29 = getelementptr inbounds i32, i32* %26, i64 %28
  %30 = getelementptr inbounds i32, i32* %29, i64 1
  %31 = load i32, i32* %30, align 4
  %32 = icmp slt i32 %25, %31
  br i1 %32, label %33, label %43

33:                                               ; preds = %20
  %34 = load i32*, i32** %3, align 8
  %35 = load i32, i32* %6, align 4
  %36 = sext i32 %35 to i64
  %37 = getelementptr inbounds i32, i32* %34, i64 %36
  %38 = load i32*, i32** %3, align 8
  %39 = load i32, i32* %6, align 4
  %40 = sext i32 %39 to i64
  %41 = getelementptr inbounds i32, i32* %38, i64 %40
  %42 = getelementptr inbounds i32, i32* %41, i64 1
  call void @swap(i32* %37, i32* %42)
  br label %43

43:                                               ; preds = %33, %20
  br label %44

44:                                               ; preds = %43
  %45 = load i32, i32* %6, align 4
  %46 = add nsw i32 %45, 1
  store i32 %46, i32* %6, align 4
  br label %13

47:                                               ; preds = %13
  br label %48

48:                                               ; preds = %47
  %49 = load i32, i32* %5, align 4
  %50 = add nsw i32 %49, 1
  store i32 %50, i32* %5, align 4
  br label %7

51:                                               ; preds = %7
  ret void
}

; Function Attrs: noinline nounwind uwtable
define dso_local void @main() #0 {
  %1 = alloca i32, align 4
  %2 = alloca i32, align 4
  %3 = alloca i32, align 4
  %4 = alloca [1000 x i32], align 16
  store i32 0, i32* %1, align 4
  br label %5

5:                                                ; preds = %13, %0
  %6 = load i32, i32* %1, align 4
  %7 = sext i32 %6 to i64
  %8 = getelementptr inbounds [1000 x i32], [1000 x i32]* %4, i64 0, i64 %7
  %9 = call i32 (i8*, ...) @__isoc99_scanf(i8* getelementptr inbounds ([4 x i8], [4 x i8]* @.str, i64 0, i64 0), i32* %8)
  %10 = icmp eq i32 -1, %9
  br i1 %10, label %11, label %12

11:                                               ; preds = %5
  br label %16

12:                                               ; preds = %5
  br label %13

13:                                               ; preds = %12
  %14 = load i32, i32* %1, align 4
  %15 = add nsw i32 %14, 1
  store i32 %15, i32* %1, align 4
  br label %5

16:                                               ; preds = %11
  %17 = getelementptr inbounds [1000 x i32], [1000 x i32]* %4, i64 0, i64 0
  %18 = load i32, i32* %1, align 4
  call void @paixu(i32* %17, i32 %18)
  store i32 0, i32* %2, align 4
  br label %19

19:                                               ; preds = %43, %16
  %20 = load i32, i32* %2, align 4
  %21 = load i32, i32* %1, align 4
  %22 = sub nsw i32 %21, 1
  %23 = icmp slt i32 %20, %22
  br i1 %23, label %24, label %46

24:                                               ; preds = %19
  %25 = load i32, i32* %2, align 4
  %26 = add nsw i32 %25, 1
  %27 = sext i32 %26 to i64
  %28 = getelementptr inbounds [1000 x i32], [1000 x i32]* %4, i64 0, i64 %27
  %29 = load i32, i32* %28, align 4
  %30 = load i32, i32* %2, align 4
  %31 = sext i32 %30 to i64
  %32 = getelementptr inbounds [1000 x i32], [1000 x i32]* %4, i64 0, i64 %31
  %33 = load i32, i32* %32, align 4
  %34 = icmp slt i32 %29, %33
  br i1 %34, label %35, label %42

35:                                               ; preds = %24
  %36 = load i32, i32* %2, align 4
  %37 = add nsw i32 %36, 1
  %38 = sext i32 %37 to i64
  %39 = getelementptr inbounds [1000 x i32], [1000 x i32]* %4, i64 0, i64 %38
  %40 = load i32, i32* %39, align 4
  %41 = call i32 (i8*, ...) @printf(i8* getelementptr inbounds ([3 x i8], [3 x i8]* @.str.1, i64 0, i64 0), i32 %40)
  br label %46

42:                                               ; preds = %24
  br label %43

43:                                               ; preds = %42
  %44 = load i32, i32* %2, align 4
  %45 = add nsw i32 %44, 1
  store i32 %45, i32* %2, align 4
  br label %19

46:                                               ; preds = %35, %19
  %47 = load i32, i32* %2, align 4
  %48 = load i32, i32* %1, align 4
  %49 = sub nsw i32 %48, 1
  %50 = icmp eq i32 %47, %49
  br i1 %50, label %51, label %53

51:                                               ; preds = %46
  %52 = call i32 (i8*, ...) @printf(i8* getelementptr inbounds ([3 x i8], [3 x i8]* @.str.2, i64 0, i64 0))
  br label %53

53:                                               ; preds = %51, %46
  ret void
}

declare dso_local i32 @__isoc99_scanf(i8*, ...) #1

declare dso_local i32 @printf(i8*, ...) #1


!llvm.module.flags = !{!0}
!llvm.ident = !{!1}

!0 = !{i32 1, !"wchar_size", i32 4}
!1 = !{!"clang version 10.0.0-4ubuntu1 "}
